ARM GAS  C:\Users\ihor\AppData\Local\Temp\ccboX6Xd.s 			page 1


   1              		.syntax unified
   2              		.cpu cortex-m0
   3              		.fpu softvfp
   4              		.eabi_attribute 20, 1
   5              		.eabi_attribute 21, 1
   6              		.eabi_attribute 23, 3
   7              		.eabi_attribute 24, 1
   8              		.eabi_attribute 25, 1
   9              		.eabi_attribute 26, 1
  10              		.eabi_attribute 30, 1
  11              		.eabi_attribute 34, 0
  12              		.eabi_attribute 18, 4
  13              		.thumb
  14              		.syntax unified
  15              		.file	"main.c"
  16              		.text
  17              	.Ltext0:
  18              		.cfi_sections	.debug_frame
  19              		.section	.text.InitializeSystem,"ax",%progbits
  20              		.align	2
  21              		.global	InitializeSystem
  22              		.code	16
  23              		.thumb_func
  24              		.type	InitializeSystem, %function
  25              	InitializeSystem:
  26              	.LFB35:
  27              		.file 1 "main.c"
   1:main.c        **** /* ========================================
   2:main.c        ****  *
   3:main.c        ****  * Copyright YOUR COMPANY, THE YEAR
   4:main.c        ****  * All Rights Reserved
   5:main.c        ****  * UNPUBLISHED, LICENSED SOFTWARE.
   6:main.c        ****  *
   7:main.c        ****  * CONFIDENTIAL AND PROPRIETARY INFORMATION
   8:main.c        ****  * WHICH IS THE PROPERTY OF your company.
   9:main.c        ****  *
  10:main.c        ****  * ========================================
  11:main.c        **** */
  12:main.c        **** #include "BLE_Process.h"
  13:main.c        **** 
  14:main.c        **** void InitializeSystem(void)
  15:main.c        **** {
  28              		.loc 1 15 0
  29              		.cfi_startproc
  30              		@ args = 0, pretend = 0, frame = 0
  31              		@ frame_needed = 0, uses_anonymous_args = 0
  32 0000 10B5     		push	{r4, lr}
  33              		.cfi_def_cfa_offset 8
  34              		.cfi_offset 4, -8
  35              		.cfi_offset 14, -4
  16:main.c        ****     /* Enable Global Interrupt Mask */
  17:main.c        ****     CyGlobalIntEnable;
  36              		.loc 1 17 0
  37              		.syntax divided
  38              	@ 17 "main.c" 1
  39 0002 62B6     		CPSIE   i
  40              	@ 0 "" 2
ARM GAS  C:\Users\ihor\AppData\Local\Temp\ccboX6Xd.s 			page 2


  18:main.c        ****     /* Start BLE stack and register the event callback function. */
  19:main.c        ****     CyBle_Start(GeneralEventHandler);
  41              		.loc 1 19 0
  42              		.thumb
  43              		.syntax unified
  44 0004 0C48     		ldr	r0, .L2
  45 0006 FFF7FEFF 		bl	CyBle_Start
  46              	.LVL0:
  20:main.c        ****     /* Start PrISM modules for LED control */
  21:main.c        ****     PrISM_1_Start();
  47              		.loc 1 21 0
  48 000a FFF7FEFF 		bl	PrISM_1_Start
  49              	.LVL1:
  22:main.c        ****     PrISM_2_Start();
  50              		.loc 1 22 0
  51 000e FFF7FEFF 		bl	PrISM_2_Start
  52              	.LVL2:
  23:main.c        ****     /* Switch off the RGB LEDs through PrISM modules */
  24:main.c        ****     PrISM_1_WritePulse0(RGB_LED_OFF);
  53              		.loc 1 24 0
  54 0012 FF20     		movs	r0, #255
  55 0014 FFF7FEFF 		bl	PrISM_1_WritePulse0
  56              	.LVL3:
  25:main.c        ****     PrISM_1_WritePulse1(RGB_LED_OFF);
  57              		.loc 1 25 0
  58 0018 FF20     		movs	r0, #255
  59 001a FFF7FEFF 		bl	PrISM_1_WritePulse1
  60              	.LVL4:
  26:main.c        ****     PrISM_2_WritePulse0(RGB_LED_OFF);
  61              		.loc 1 26 0
  62 001e FF20     		movs	r0, #255
  63 0020 FFF7FEFF 		bl	PrISM_2_WritePulse0
  64              	.LVL5:
  27:main.c        ****     /* Set Drive modes of the output pins to Strong */
  28:main.c        ****     RED_SetDriveMode(RED_DM_STRONG);
  65              		.loc 1 28 0
  66 0024 0620     		movs	r0, #6
  67 0026 FFF7FEFF 		bl	RED_SetDriveMode
  68              	.LVL6:
  29:main.c        ****     GREEN_SetDriveMode(GREEN_DM_STRONG);
  69              		.loc 1 29 0
  70 002a 0620     		movs	r0, #6
  71 002c FFF7FEFF 		bl	GREEN_SetDriveMode
  72              	.LVL7:
  30:main.c        ****     BLUE_SetDriveMode(BLUE_DM_STRONG);
  73              		.loc 1 30 0
  74 0030 0620     		movs	r0, #6
  75 0032 FFF7FEFF 		bl	BLUE_SetDriveMode
  76              	.LVL8:
  31:main.c        **** }
  77              		.loc 1 31 0
  78              		@ sp needed
  79 0036 10BD     		pop	{r4, pc}
  80              	.L3:
  81              		.align	2
  82              	.L2:
  83 0038 00000000 		.word	GeneralEventHandler
ARM GAS  C:\Users\ihor\AppData\Local\Temp\ccboX6Xd.s 			page 3


  84              		.cfi_endproc
  85              	.LFE35:
  86              		.size	InitializeSystem, .-InitializeSystem
  87              		.section	.text.main,"ax",%progbits
  88              		.align	2
  89              		.global	main
  90              		.code	16
  91              		.thumb_func
  92              		.type	main, %function
  93              	main:
  94              	.LFB36:
  32:main.c        **** int main(void)
  33:main.c        **** {
  95              		.loc 1 33 0
  96              		.cfi_startproc
  97              		@ Volatile: function does not return.
  98              		@ args = 0, pretend = 0, frame = 0
  99              		@ frame_needed = 0, uses_anonymous_args = 0
 100 0000 10B5     		push	{r4, lr}
 101              		.cfi_def_cfa_offset 8
 102              		.cfi_offset 4, -8
 103              		.cfi_offset 14, -4
  34:main.c        ****     CyGlobalIntEnable; /* Enable global interrupts. */
 104              		.loc 1 34 0
 105              		.syntax divided
 106              	@ 34 "main.c" 1
 107 0002 62B6     		CPSIE   i
 108              	@ 0 "" 2
  35:main.c        **** 
  36:main.c        ****     /* Place your initialization/startup code here (e.g. MyInst_Start()) */
  37:main.c        ****     InitializeSystem();
 109              		.loc 1 37 0
 110              		.thumb
 111              		.syntax unified
 112 0004 FFF7FEFF 		bl	InitializeSystem
 113              	.LVL9:
 114              	.L5:
  38:main.c        ****     
  39:main.c        ****     for(;;)
  40:main.c        ****     {
  41:main.c        ****        /* Process BLE Events. This generates events in the callback function */
  42:main.c        ****         CyBle_ProcessEvents();
 115              		.loc 1 42 0 discriminator 1
 116 0008 FFF7FEFF 		bl	CyBle_ProcessEvents
 117              	.LVL10:
 118 000c FCE7     		b	.L5
 119              		.cfi_endproc
 120              	.LFE36:
 121              		.size	main, .-main
 122 000e C046     		.text
 123              	.Letext0:
 124              		.file 2 "Generated_Source\\PSoC4/BLE.h"
 125              		.file 3 "Generated_Source\\PSoC4/PrISM_1.h"
 126              		.file 4 "Generated_Source\\PSoC4/PrISM_2.h"
 127              		.file 5 "Generated_Source\\PSoC4/RED.h"
 128              		.file 6 "Generated_Source\\PSoC4/GREEN.h"
 129              		.file 7 "Generated_Source\\PSoC4/BLUE.h"
ARM GAS  C:\Users\ihor\AppData\Local\Temp\ccboX6Xd.s 			page 4


 130              		.file 8 "Generated_Source\\PSoC4/BLE_Stack.h"