ARM GAS  C:\Users\ihor\AppData\Local\Temp\cckSoLY4.s 			page 1


   1              		.syntax unified
   2              		.cpu cortex-m0
   3              		.fpu softvfp
   4              		.eabi_attribute 20, 1
   5              		.eabi_attribute 21, 1
   6              		.eabi_attribute 23, 3
   7              		.eabi_attribute 24, 1
   8              		.eabi_attribute 25, 1
   9              		.eabi_attribute 26, 1
  10              		.eabi_attribute 30, 1
  11              		.eabi_attribute 34, 0
  12              		.eabi_attribute 18, 4
  13              		.thumb
  14              		.syntax unified
  15              		.file	"PrISM_1_PM.c"
  16              		.text
  17              	.Ltext0:
  18              		.cfi_sections	.debug_frame
  19              		.section	.text.PrISM_1_SaveConfig,"ax",%progbits
  20              		.align	2
  21              		.global	PrISM_1_SaveConfig
  22              		.code	16
  23              		.thumb_func
  24              		.type	PrISM_1_SaveConfig, %function
  25              	PrISM_1_SaveConfig:
  26              	.LFB2:
  27              		.file 1 "Generated_Source\\PSoC4\\PrISM_1_PM.c"
   1:Generated_Source\PSoC4/PrISM_1_PM.c **** /*******************************************************************************
   2:Generated_Source\PSoC4/PrISM_1_PM.c **** * File Name: PrISM_1_PM.c
   3:Generated_Source\PSoC4/PrISM_1_PM.c **** * Version 2.20
   4:Generated_Source\PSoC4/PrISM_1_PM.c **** *
   5:Generated_Source\PSoC4/PrISM_1_PM.c **** * Description:
   6:Generated_Source\PSoC4/PrISM_1_PM.c **** *  This file provides Sleep/WakeUp APIs functionality of the PrISM component
   7:Generated_Source\PSoC4/PrISM_1_PM.c **** *
   8:Generated_Source\PSoC4/PrISM_1_PM.c **** * Note:
   9:Generated_Source\PSoC4/PrISM_1_PM.c **** *
  10:Generated_Source\PSoC4/PrISM_1_PM.c **** ********************************************************************************
  11:Generated_Source\PSoC4/PrISM_1_PM.c **** * Copyright 2008-2012, Cypress Semiconductor Corporation.  All rights reserved.
  12:Generated_Source\PSoC4/PrISM_1_PM.c **** * You may use this file only in accordance with the license, terms, conditions, 
  13:Generated_Source\PSoC4/PrISM_1_PM.c **** * disclaimers, and limitations in the end user license agreement accompanying 
  14:Generated_Source\PSoC4/PrISM_1_PM.c **** * the software package with which this file was provided.
  15:Generated_Source\PSoC4/PrISM_1_PM.c **** *******************************************************************************/
  16:Generated_Source\PSoC4/PrISM_1_PM.c **** 
  17:Generated_Source\PSoC4/PrISM_1_PM.c **** #include "PrISM_1.h"
  18:Generated_Source\PSoC4/PrISM_1_PM.c **** 
  19:Generated_Source\PSoC4/PrISM_1_PM.c **** 
  20:Generated_Source\PSoC4/PrISM_1_PM.c **** /***************************************
  21:Generated_Source\PSoC4/PrISM_1_PM.c **** * Local data allocation
  22:Generated_Source\PSoC4/PrISM_1_PM.c **** ***************************************/
  23:Generated_Source\PSoC4/PrISM_1_PM.c **** static PrISM_1_BACKUP_STRUCT  PrISM_1_backup = 
  24:Generated_Source\PSoC4/PrISM_1_PM.c **** {
  25:Generated_Source\PSoC4/PrISM_1_PM.c ****     /* enableState */
  26:Generated_Source\PSoC4/PrISM_1_PM.c ****     0u,
  27:Generated_Source\PSoC4/PrISM_1_PM.c ****     /* cr */
  28:Generated_Source\PSoC4/PrISM_1_PM.c ****     #if(!PrISM_1_PULSE_TYPE_HARDCODED)
  29:Generated_Source\PSoC4/PrISM_1_PM.c ****        (((PrISM_1_GREATERTHAN_OR_EQUAL == PrISM_1_COMPARE0) ? \
  30:Generated_Source\PSoC4/PrISM_1_PM.c ****                                                 PrISM_1_CTRL_COMPARE_TYPE0_GREATER_THAN_OR_EQUAL : 
ARM GAS  C:\Users\ihor\AppData\Local\Temp\cckSoLY4.s 			page 2


  31:Generated_Source\PSoC4/PrISM_1_PM.c ****         ((PrISM_1_GREATERTHAN_OR_EQUAL == PrISM_1_COMPARE1) ? \
  32:Generated_Source\PSoC4/PrISM_1_PM.c ****                                                 PrISM_1_CTRL_COMPARE_TYPE1_GREATER_THAN_OR_EQUAL : 
  33:Generated_Source\PSoC4/PrISM_1_PM.c ****     #endif /* End PrISM_1_PULSE_TYPE_HARDCODED */
  34:Generated_Source\PSoC4/PrISM_1_PM.c ****     /* seed */    
  35:Generated_Source\PSoC4/PrISM_1_PM.c ****     PrISM_1_SEED,
  36:Generated_Source\PSoC4/PrISM_1_PM.c ****     /* seed_copy */    
  37:Generated_Source\PSoC4/PrISM_1_PM.c ****     PrISM_1_SEED,
  38:Generated_Source\PSoC4/PrISM_1_PM.c ****     /* polynom */
  39:Generated_Source\PSoC4/PrISM_1_PM.c ****     PrISM_1_POLYNOM,
  40:Generated_Source\PSoC4/PrISM_1_PM.c ****     #if(CY_UDB_V0)
  41:Generated_Source\PSoC4/PrISM_1_PM.c ****         /* density0 */
  42:Generated_Source\PSoC4/PrISM_1_PM.c ****         PrISM_1_DENSITY0,
  43:Generated_Source\PSoC4/PrISM_1_PM.c ****         /* density1 */
  44:Generated_Source\PSoC4/PrISM_1_PM.c ****         PrISM_1_DENSITY1,
  45:Generated_Source\PSoC4/PrISM_1_PM.c ****     #endif /*End CY_UDB_V0*/
  46:Generated_Source\PSoC4/PrISM_1_PM.c **** };
  47:Generated_Source\PSoC4/PrISM_1_PM.c **** 
  48:Generated_Source\PSoC4/PrISM_1_PM.c **** 
  49:Generated_Source\PSoC4/PrISM_1_PM.c **** /*******************************************************************************
  50:Generated_Source\PSoC4/PrISM_1_PM.c **** * Function Name: PrISM_1_SaveConfig
  51:Generated_Source\PSoC4/PrISM_1_PM.c **** ********************************************************************************
  52:Generated_Source\PSoC4/PrISM_1_PM.c **** *
  53:Generated_Source\PSoC4/PrISM_1_PM.c **** * Summary:
  54:Generated_Source\PSoC4/PrISM_1_PM.c **** *  Saves the current user configuration.
  55:Generated_Source\PSoC4/PrISM_1_PM.c **** *  
  56:Generated_Source\PSoC4/PrISM_1_PM.c **** * Parameters:  
  57:Generated_Source\PSoC4/PrISM_1_PM.c **** *  None.
  58:Generated_Source\PSoC4/PrISM_1_PM.c **** *
  59:Generated_Source\PSoC4/PrISM_1_PM.c **** * Return: 
  60:Generated_Source\PSoC4/PrISM_1_PM.c **** *  None.
  61:Generated_Source\PSoC4/PrISM_1_PM.c **** *
  62:Generated_Source\PSoC4/PrISM_1_PM.c **** * Global Variables:
  63:Generated_Source\PSoC4/PrISM_1_PM.c **** *  PrISM_1_backup - modified when non-retention registers are saved.
  64:Generated_Source\PSoC4/PrISM_1_PM.c **** *
  65:Generated_Source\PSoC4/PrISM_1_PM.c **** * Reentrant:
  66:Generated_Source\PSoC4/PrISM_1_PM.c **** *  No.
  67:Generated_Source\PSoC4/PrISM_1_PM.c **** *
  68:Generated_Source\PSoC4/PrISM_1_PM.c **** *******************************************************************************/
  69:Generated_Source\PSoC4/PrISM_1_PM.c **** void PrISM_1_SaveConfig(void) 
  70:Generated_Source\PSoC4/PrISM_1_PM.c **** {
  28              		.loc 1 70 0
  29              		.cfi_startproc
  30              		@ args = 0, pretend = 0, frame = 0
  31              		@ frame_needed = 0, uses_anonymous_args = 0
  32 0000 10B5     		push	{r4, lr}
  33              		.cfi_def_cfa_offset 8
  34              		.cfi_offset 4, -8
  35              		.cfi_offset 14, -4
  71:Generated_Source\PSoC4/PrISM_1_PM.c ****     #if (CY_UDB_V0)
  72:Generated_Source\PSoC4/PrISM_1_PM.c ****         #if(!PrISM_1_PULSE_TYPE_HARDCODED)
  73:Generated_Source\PSoC4/PrISM_1_PM.c ****             PrISM_1_backup.cr = PrISM_1_CONTROL_REG;
  74:Generated_Source\PSoC4/PrISM_1_PM.c ****         #endif /* End PrISM_1_PULSE_TYPE_HARDCODED */
  75:Generated_Source\PSoC4/PrISM_1_PM.c ****         PrISM_1_backup.seed = PrISM_1_ReadSeed();
  76:Generated_Source\PSoC4/PrISM_1_PM.c ****         PrISM_1_backup.seed_copy = CY_GET_REG8(PrISM_1_SEED_COPY_PTR);
  77:Generated_Source\PSoC4/PrISM_1_PM.c ****         PrISM_1_backup.polynom = PrISM_1_ReadPolynomial();
  78:Generated_Source\PSoC4/PrISM_1_PM.c ****         PrISM_1_backup.density0 = PrISM_1_ReadPulse0();
  79:Generated_Source\PSoC4/PrISM_1_PM.c ****         PrISM_1_backup.density1 = PrISM_1_ReadPulse1();
ARM GAS  C:\Users\ihor\AppData\Local\Temp\cckSoLY4.s 			page 3


  80:Generated_Source\PSoC4/PrISM_1_PM.c ****     #else /* CY_UDB_V1 */
  81:Generated_Source\PSoC4/PrISM_1_PM.c ****         #if(!PrISM_1_PULSE_TYPE_HARDCODED)
  82:Generated_Source\PSoC4/PrISM_1_PM.c ****             PrISM_1_backup.cr = PrISM_1_CONTROL_REG;
  36              		.loc 1 82 0
  37 0002 074B     		ldr	r3, .L2
  38 0004 1B78     		ldrb	r3, [r3]
  39 0006 074C     		ldr	r4, .L2+4
  40 0008 6370     		strb	r3, [r4, #1]
  83:Generated_Source\PSoC4/PrISM_1_PM.c ****         #endif /* End PrISM_1_PULSE_TYPE_HARDCODED */
  84:Generated_Source\PSoC4/PrISM_1_PM.c ****         PrISM_1_backup.seed = PrISM_1_ReadSeed();
  41              		.loc 1 84 0
  42 000a FFF7FEFF 		bl	PrISM_1_ReadSeed
  43              	.LVL0:
  44 000e A070     		strb	r0, [r4, #2]
  85:Generated_Source\PSoC4/PrISM_1_PM.c ****         PrISM_1_backup.seed_copy = CY_GET_REG8(PrISM_1_SEED_COPY_PTR);
  45              		.loc 1 85 0
  46 0010 054B     		ldr	r3, .L2+8
  47 0012 1B78     		ldrb	r3, [r3]
  48 0014 E370     		strb	r3, [r4, #3]
  86:Generated_Source\PSoC4/PrISM_1_PM.c ****         PrISM_1_backup.polynom = PrISM_1_ReadPolynomial();
  49              		.loc 1 86 0
  50 0016 FFF7FEFF 		bl	PrISM_1_ReadPolynomial
  51              	.LVL1:
  52 001a 2071     		strb	r0, [r4, #4]
  87:Generated_Source\PSoC4/PrISM_1_PM.c ****     #endif  /* CY_UDB_V0 */
  88:Generated_Source\PSoC4/PrISM_1_PM.c **** }
  53              		.loc 1 88 0
  54              		@ sp needed
  55 001c 10BD     		pop	{r4, pc}
  56              	.L3:
  57 001e C046     		.align	2
  58              	.L2:
  59 0020 72000F40 		.word	1074724978
  60 0024 00000000 		.word	.LANCHOR0
  61 0028 42000F40 		.word	1074724930
  62              		.cfi_endproc
  63              	.LFE2:
  64              		.size	PrISM_1_SaveConfig, .-PrISM_1_SaveConfig
  65              		.section	.text.PrISM_1_RestoreConfig,"ax",%progbits
  66              		.align	2
  67              		.global	PrISM_1_RestoreConfig
  68              		.code	16
  69              		.thumb_func
  70              		.type	PrISM_1_RestoreConfig, %function
  71              	PrISM_1_RestoreConfig:
  72              	.LFB3:
  89:Generated_Source\PSoC4/PrISM_1_PM.c **** 
  90:Generated_Source\PSoC4/PrISM_1_PM.c **** 
  91:Generated_Source\PSoC4/PrISM_1_PM.c **** /*******************************************************************************
  92:Generated_Source\PSoC4/PrISM_1_PM.c **** * Function Name: PrISM_1_RestoreConfig
  93:Generated_Source\PSoC4/PrISM_1_PM.c **** ********************************************************************************
  94:Generated_Source\PSoC4/PrISM_1_PM.c **** *
  95:Generated_Source\PSoC4/PrISM_1_PM.c **** * Summary:
  96:Generated_Source\PSoC4/PrISM_1_PM.c **** *  Restores the current user configuration.
  97:Generated_Source\PSoC4/PrISM_1_PM.c **** *
  98:Generated_Source\PSoC4/PrISM_1_PM.c **** * Parameters:  
  99:Generated_Source\PSoC4/PrISM_1_PM.c **** *  None.
ARM GAS  C:\Users\ihor\AppData\Local\Temp\cckSoLY4.s 			page 4


 100:Generated_Source\PSoC4/PrISM_1_PM.c **** *
 101:Generated_Source\PSoC4/PrISM_1_PM.c **** * Return: 
 102:Generated_Source\PSoC4/PrISM_1_PM.c **** *  None.
 103:Generated_Source\PSoC4/PrISM_1_PM.c **** *
 104:Generated_Source\PSoC4/PrISM_1_PM.c **** * Global Variables:
 105:Generated_Source\PSoC4/PrISM_1_PM.c **** *  PrISM_1_backup - used when non-retention registers are restored.
 106:Generated_Source\PSoC4/PrISM_1_PM.c **** *
 107:Generated_Source\PSoC4/PrISM_1_PM.c **** *******************************************************************************/
 108:Generated_Source\PSoC4/PrISM_1_PM.c **** void PrISM_1_RestoreConfig(void) 
 109:Generated_Source\PSoC4/PrISM_1_PM.c **** {
  73              		.loc 1 109 0
  74              		.cfi_startproc
  75              		@ args = 0, pretend = 0, frame = 0
  76              		@ frame_needed = 0, uses_anonymous_args = 0
  77 0000 10B5     		push	{r4, lr}
  78              		.cfi_def_cfa_offset 8
  79              		.cfi_offset 4, -8
  80              		.cfi_offset 14, -4
 110:Generated_Source\PSoC4/PrISM_1_PM.c ****     #if (CY_UDB_V0)
 111:Generated_Source\PSoC4/PrISM_1_PM.c ****     
 112:Generated_Source\PSoC4/PrISM_1_PM.c ****         uint8 enableInterrupts;
 113:Generated_Source\PSoC4/PrISM_1_PM.c ****         
 114:Generated_Source\PSoC4/PrISM_1_PM.c ****         #if(!PrISM_1_PULSE_TYPE_HARDCODED)
 115:Generated_Source\PSoC4/PrISM_1_PM.c ****             PrISM_1_CONTROL_REG = PrISM_1_backup.cr;
 116:Generated_Source\PSoC4/PrISM_1_PM.c ****         #endif /* End PrISM_1_PULSE_TYPE_HARDCODED */
 117:Generated_Source\PSoC4/PrISM_1_PM.c **** 
 118:Generated_Source\PSoC4/PrISM_1_PM.c ****         CY_SET_REG8(PrISM_1_SEED_COPY_PTR, PrISM_1_backup.seed_copy);
 119:Generated_Source\PSoC4/PrISM_1_PM.c ****         CY_SET_REG8(PrISM_1_SEED_PTR, PrISM_1_backup.seed);
 120:Generated_Source\PSoC4/PrISM_1_PM.c ****         PrISM_1_WritePolynomial(PrISM_1_backup.polynom);
 121:Generated_Source\PSoC4/PrISM_1_PM.c ****         PrISM_1_WritePulse0(PrISM_1_backup.density0);
 122:Generated_Source\PSoC4/PrISM_1_PM.c ****         PrISM_1_WritePulse1(PrISM_1_backup.density1);
 123:Generated_Source\PSoC4/PrISM_1_PM.c ****         
 124:Generated_Source\PSoC4/PrISM_1_PM.c ****         enableInterrupts = CyEnterCriticalSection();
 125:Generated_Source\PSoC4/PrISM_1_PM.c ****         /* Set FIFO0_CLR bit to use FIFO0 as a simple one-byte buffer*/
 126:Generated_Source\PSoC4/PrISM_1_PM.c ****         CY_SET_REG8(PrISM_1_AUX_CONTROL_PTR, 
 127:Generated_Source\PSoC4/PrISM_1_PM.c ****                         CY_GET_REG8(PrISM_1_AUX_CONTROL_PTR) | PrISM_1_FIFO0_CLR);
 128:Generated_Source\PSoC4/PrISM_1_PM.c ****         CyExitCriticalSection(enableInterrupts);
 129:Generated_Source\PSoC4/PrISM_1_PM.c **** 
 130:Generated_Source\PSoC4/PrISM_1_PM.c ****     #else   /* CY_UDB_V1 */
 131:Generated_Source\PSoC4/PrISM_1_PM.c **** 
 132:Generated_Source\PSoC4/PrISM_1_PM.c ****         #if(!PrISM_1_PULSE_TYPE_HARDCODED)
 133:Generated_Source\PSoC4/PrISM_1_PM.c ****             PrISM_1_CONTROL_REG = PrISM_1_backup.cr;
  81              		.loc 1 133 0
  82 0002 074B     		ldr	r3, .L5
  83 0004 5978     		ldrb	r1, [r3, #1]
  84 0006 074A     		ldr	r2, .L5+4
  85 0008 1170     		strb	r1, [r2]
 134:Generated_Source\PSoC4/PrISM_1_PM.c ****         #endif /* End PrISM_1_PULSE_TYPE_HARDCODED */
 135:Generated_Source\PSoC4/PrISM_1_PM.c **** 
 136:Generated_Source\PSoC4/PrISM_1_PM.c ****         CY_SET_REG8(PrISM_1_SEED_COPY_PTR, PrISM_1_backup.seed_copy);
  86              		.loc 1 136 0
  87 000a D978     		ldrb	r1, [r3, #3]
  88 000c 064A     		ldr	r2, .L5+8
  89 000e 1170     		strb	r1, [r2]
 137:Generated_Source\PSoC4/PrISM_1_PM.c ****         CY_SET_REG8(PrISM_1_SEED_PTR, PrISM_1_backup.seed);
  90              		.loc 1 137 0
  91 0010 9978     		ldrb	r1, [r3, #2]
ARM GAS  C:\Users\ihor\AppData\Local\Temp\cckSoLY4.s 			page 5


  92 0012 064A     		ldr	r2, .L5+12
  93 0014 1170     		strb	r1, [r2]
 138:Generated_Source\PSoC4/PrISM_1_PM.c ****         PrISM_1_WritePolynomial(PrISM_1_backup.polynom);
  94              		.loc 1 138 0
  95 0016 1879     		ldrb	r0, [r3, #4]
  96 0018 FFF7FEFF 		bl	PrISM_1_WritePolynomial
  97              	.LVL2:
 139:Generated_Source\PSoC4/PrISM_1_PM.c ****     
 140:Generated_Source\PSoC4/PrISM_1_PM.c ****     #endif  /* End CY_UDB_V0 */
 141:Generated_Source\PSoC4/PrISM_1_PM.c **** }
  98              		.loc 1 141 0
  99              		@ sp needed
 100 001c 10BD     		pop	{r4, pc}
 101              	.L6:
 102 001e C046     		.align	2
 103              	.L5:
 104 0020 00000000 		.word	.LANCHOR0
 105 0024 72000F40 		.word	1074724978
 106 0028 42000F40 		.word	1074724930
 107 002c 02000F40 		.word	1074724866
 108              		.cfi_endproc
 109              	.LFE3:
 110              		.size	PrISM_1_RestoreConfig, .-PrISM_1_RestoreConfig
 111              		.section	.text.PrISM_1_Sleep,"ax",%progbits
 112              		.align	2
 113              		.global	PrISM_1_Sleep
 114              		.code	16
 115              		.thumb_func
 116              		.type	PrISM_1_Sleep, %function
 117              	PrISM_1_Sleep:
 118              	.LFB4:
 142:Generated_Source\PSoC4/PrISM_1_PM.c **** 
 143:Generated_Source\PSoC4/PrISM_1_PM.c **** 
 144:Generated_Source\PSoC4/PrISM_1_PM.c **** /*******************************************************************************
 145:Generated_Source\PSoC4/PrISM_1_PM.c **** * Function Name: PrISM_1_Sleep
 146:Generated_Source\PSoC4/PrISM_1_PM.c **** ********************************************************************************
 147:Generated_Source\PSoC4/PrISM_1_PM.c **** *
 148:Generated_Source\PSoC4/PrISM_1_PM.c **** * Summary:
 149:Generated_Source\PSoC4/PrISM_1_PM.c **** *  Stops and saves the user configuration
 150:Generated_Source\PSoC4/PrISM_1_PM.c **** *  
 151:Generated_Source\PSoC4/PrISM_1_PM.c **** * Parameters:  
 152:Generated_Source\PSoC4/PrISM_1_PM.c **** *  None.
 153:Generated_Source\PSoC4/PrISM_1_PM.c **** *
 154:Generated_Source\PSoC4/PrISM_1_PM.c **** * Return: 
 155:Generated_Source\PSoC4/PrISM_1_PM.c **** *  None.
 156:Generated_Source\PSoC4/PrISM_1_PM.c **** *
 157:Generated_Source\PSoC4/PrISM_1_PM.c **** * Global Variables:
 158:Generated_Source\PSoC4/PrISM_1_PM.c **** *  PrISM_1_backup - modified when non-retention registers are saved.
 159:Generated_Source\PSoC4/PrISM_1_PM.c **** *
 160:Generated_Source\PSoC4/PrISM_1_PM.c **** * Reentrant:
 161:Generated_Source\PSoC4/PrISM_1_PM.c **** *  No.
 162:Generated_Source\PSoC4/PrISM_1_PM.c **** *
 163:Generated_Source\PSoC4/PrISM_1_PM.c **** *******************************************************************************/
 164:Generated_Source\PSoC4/PrISM_1_PM.c **** void PrISM_1_Sleep(void) 
 165:Generated_Source\PSoC4/PrISM_1_PM.c **** {
 119              		.loc 1 165 0
 120              		.cfi_startproc
ARM GAS  C:\Users\ihor\AppData\Local\Temp\cckSoLY4.s 			page 6


 121              		@ args = 0, pretend = 0, frame = 0
 122              		@ frame_needed = 0, uses_anonymous_args = 0
 123 0000 10B5     		push	{r4, lr}
 124              		.cfi_def_cfa_offset 8
 125              		.cfi_offset 4, -8
 126              		.cfi_offset 14, -4
 166:Generated_Source\PSoC4/PrISM_1_PM.c ****     #if(!PrISM_1_PULSE_TYPE_HARDCODED)
 167:Generated_Source\PSoC4/PrISM_1_PM.c ****         if((PrISM_1_CONTROL_REG & PrISM_1_CTRL_ENABLE) != 0u) 
 127              		.loc 1 167 0
 128 0002 084B     		ldr	r3, .L10
 129 0004 1B78     		ldrb	r3, [r3]
 130 0006 DB07     		lsls	r3, r3, #31
 131 0008 03D5     		bpl	.L8
 168:Generated_Source\PSoC4/PrISM_1_PM.c ****         {
 169:Generated_Source\PSoC4/PrISM_1_PM.c ****             PrISM_1_backup.enableState = 1u;
 132              		.loc 1 169 0
 133 000a 0122     		movs	r2, #1
 134 000c 064B     		ldr	r3, .L10+4
 135 000e 1A70     		strb	r2, [r3]
 136 0010 02E0     		b	.L9
 137              	.L8:
 170:Generated_Source\PSoC4/PrISM_1_PM.c ****         }
 171:Generated_Source\PSoC4/PrISM_1_PM.c ****         else
 172:Generated_Source\PSoC4/PrISM_1_PM.c ****         {
 173:Generated_Source\PSoC4/PrISM_1_PM.c ****             PrISM_1_backup.enableState = 0u;
 138              		.loc 1 173 0
 139 0012 0022     		movs	r2, #0
 140 0014 044B     		ldr	r3, .L10+4
 141 0016 1A70     		strb	r2, [r3]
 142              	.L9:
 174:Generated_Source\PSoC4/PrISM_1_PM.c ****         }
 175:Generated_Source\PSoC4/PrISM_1_PM.c ****     #endif /* End PrISM_1_PULSE_TYPE_HARDCODED */
 176:Generated_Source\PSoC4/PrISM_1_PM.c ****     PrISM_1_Stop();
 143              		.loc 1 176 0
 144 0018 FFF7FEFF 		bl	PrISM_1_Stop
 145              	.LVL3:
 177:Generated_Source\PSoC4/PrISM_1_PM.c ****     PrISM_1_SaveConfig();
 146              		.loc 1 177 0
 147 001c FFF7FEFF 		bl	PrISM_1_SaveConfig
 148              	.LVL4:
 178:Generated_Source\PSoC4/PrISM_1_PM.c **** }
 149              		.loc 1 178 0
 150              		@ sp needed
 151 0020 10BD     		pop	{r4, pc}
 152              	.L11:
 153 0022 C046     		.align	2
 154              	.L10:
 155 0024 72000F40 		.word	1074724978
 156 0028 00000000 		.word	.LANCHOR0
 157              		.cfi_endproc
 158              	.LFE4:
 159              		.size	PrISM_1_Sleep, .-PrISM_1_Sleep
 160              		.section	.text.PrISM_1_Wakeup,"ax",%progbits
 161              		.align	2
 162              		.global	PrISM_1_Wakeup
 163              		.code	16
 164              		.thumb_func
ARM GAS  C:\Users\ihor\AppData\Local\Temp\cckSoLY4.s 			page 7


 165              		.type	PrISM_1_Wakeup, %function
 166              	PrISM_1_Wakeup:
 167              	.LFB5:
 179:Generated_Source\PSoC4/PrISM_1_PM.c **** 
 180:Generated_Source\PSoC4/PrISM_1_PM.c **** 
 181:Generated_Source\PSoC4/PrISM_1_PM.c **** /*******************************************************************************
 182:Generated_Source\PSoC4/PrISM_1_PM.c **** * Function Name: PrISM_1_Wakeup
 183:Generated_Source\PSoC4/PrISM_1_PM.c **** ********************************************************************************
 184:Generated_Source\PSoC4/PrISM_1_PM.c **** *
 185:Generated_Source\PSoC4/PrISM_1_PM.c **** * Summary:
 186:Generated_Source\PSoC4/PrISM_1_PM.c **** *  Restores and enables the user configuration
 187:Generated_Source\PSoC4/PrISM_1_PM.c **** *  
 188:Generated_Source\PSoC4/PrISM_1_PM.c **** * Parameters:  
 189:Generated_Source\PSoC4/PrISM_1_PM.c **** *  None.
 190:Generated_Source\PSoC4/PrISM_1_PM.c **** *
 191:Generated_Source\PSoC4/PrISM_1_PM.c **** * Return: 
 192:Generated_Source\PSoC4/PrISM_1_PM.c **** *  None.
 193:Generated_Source\PSoC4/PrISM_1_PM.c **** *
 194:Generated_Source\PSoC4/PrISM_1_PM.c **** * Global Variables:
 195:Generated_Source\PSoC4/PrISM_1_PM.c **** *  PrISM_1_backup - used when non-retention registers are restored.
 196:Generated_Source\PSoC4/PrISM_1_PM.c **** *
 197:Generated_Source\PSoC4/PrISM_1_PM.c **** *******************************************************************************/
 198:Generated_Source\PSoC4/PrISM_1_PM.c **** void PrISM_1_Wakeup(void) 
 199:Generated_Source\PSoC4/PrISM_1_PM.c **** {
 168              		.loc 1 199 0
 169              		.cfi_startproc
 170              		@ args = 0, pretend = 0, frame = 0
 171              		@ frame_needed = 0, uses_anonymous_args = 0
 172 0000 10B5     		push	{r4, lr}
 173              		.cfi_def_cfa_offset 8
 174              		.cfi_offset 4, -8
 175              		.cfi_offset 14, -4
 200:Generated_Source\PSoC4/PrISM_1_PM.c ****     PrISM_1_RestoreConfig();
 176              		.loc 1 200 0
 177 0002 FFF7FEFF 		bl	PrISM_1_RestoreConfig
 178              	.LVL5:
 201:Generated_Source\PSoC4/PrISM_1_PM.c ****     if(PrISM_1_backup.enableState != 0u)
 179              		.loc 1 201 0
 180 0006 034B     		ldr	r3, .L14
 181 0008 1B78     		ldrb	r3, [r3]
 182 000a 002B     		cmp	r3, #0
 183 000c 01D0     		beq	.L12
 202:Generated_Source\PSoC4/PrISM_1_PM.c ****     {
 203:Generated_Source\PSoC4/PrISM_1_PM.c ****         PrISM_1_Enable();
 184              		.loc 1 203 0
 185 000e FFF7FEFF 		bl	PrISM_1_Enable
 186              	.LVL6:
 187              	.L12:
 204:Generated_Source\PSoC4/PrISM_1_PM.c ****     } 
 205:Generated_Source\PSoC4/PrISM_1_PM.c **** }
 188              		.loc 1 205 0
 189              		@ sp needed
 190 0012 10BD     		pop	{r4, pc}
 191              	.L15:
 192              		.align	2
 193              	.L14:
 194 0014 00000000 		.word	.LANCHOR0
ARM GAS  C:\Users\ihor\AppData\Local\Temp\cckSoLY4.s 			page 8


 195              		.cfi_endproc
 196              	.LFE5:
 197              		.size	PrISM_1_Wakeup, .-PrISM_1_Wakeup
 198              		.data
 199              		.align	2
 200              		.set	.LANCHOR0,. + 0
 201              		.type	PrISM_1_backup, %object
 202              		.size	PrISM_1_backup, 5
 203              	PrISM_1_backup:
 204 0000 00       		.byte	0
 205 0001 00       		.byte	0
 206 0002 FF       		.byte	-1
 207 0003 FF       		.byte	-1
 208 0004 B8       		.byte	-72
 209              		.text
 210              	.Letext0:
 211              		.file 2 "Generated_Source\\PSoC4\\cytypes.h"
 212              		.file 3 "Generated_Source\\PSoC4\\PrISM_1.h"